(dp0
Vengine
p1
S'pdflatex'
p2
sVpackages
p3
c__builtin__
set
p4
((lp5
Vgeometry
p6
aVhyperref
p7
aValltt
p8
aVSweave
p9
aVfancyhdr
p10
atp11
Rp12
sVfiles_with_guttermarks
p13
g4
((lp14
S'Chapter1.tex'
p15
aV/Users/dph/Dropbox/working_files/open_intro/oi_biostat/r_supplement/chapters/chapter_1/./Chapter1.tex
p16
atp17
Rp18
sVsynctex
p19
I01
s.